target datalayout = "e-m:e-p270:32:32-p271:32:32-p272:64:64-i64:64-i128:128-f80:128-n8:16:32:64-S128"
target triple = "x86_64-unknown-linux-gnu"

%"class.std::__cxx11::basic_string" = type { %"struct.std::__cxx11::basic_string<char>::_Alloc_hider", i64, %union.anon }
%"struct.std::__cxx11::basic_string<char>::_Alloc_hider" = type { ptr }
%union.anon = type { i64, [8 x i8] }
%"class.YAML::SingleDocParser" = type { i32, ptr, ptr, %"class.std::unique_ptr", %"class.std::map", i64 }
%"class.std::unique_ptr" = type { %"struct.std::__uniq_ptr_data" }
%"struct.std::__uniq_ptr_data" = type { %"class.std::__uniq_ptr_impl" }
%"class.std::__uniq_ptr_impl" = type { %"class.std::tuple" }
%"class.std::tuple" = type { %"struct.std::_Tuple_impl" }
%"struct.std::_Tuple_impl" = type { %"struct.std::_Head_base.1" }
%"struct.std::_Head_base.1" = type { ptr }
%"class.std::map" = type { %"class.std::_Rb_tree" }
%"class.std::_Rb_tree" = type { %"struct.std::_Rb_tree<std::__cxx11::basic_string<char>, std::pair<const std::__cxx11::basic_string<char>, unsigned long>, std::_Select1st<std::pair<const std::__cxx11::basic_string<char>, unsigned long>>, std::less<std::__cxx11::basic_string<char>>>::_Rb_tree_impl" }
%"struct.std::_Rb_tree<std::__cxx11::basic_string<char>, std::pair<const std::__cxx11::basic_string<char>, unsigned long>, std::_Select1st<std::pair<const std::__cxx11::basic_string<char>, unsigned long>>, std::less<std::__cxx11::basic_string<char>>>::_Rb_tree_impl" = type { %"struct.std::_Rb_tree_key_compare", %"struct.std::_Rb_tree_header" }
%"struct.std::_Rb_tree_key_compare" = type { %"struct.std::less" }
%"struct.std::less" = type { i8 }
%"struct.std::_Rb_tree_header" = type { %"struct.std::_Rb_tree_node_base", i64 }
%"struct.std::_Rb_tree_node_base" = type { i32, ptr, ptr, ptr }
%"struct.YAML::Token" = type <{ i32, i32, %"struct.YAML::Mark", [4 x i8], %"class.std::__cxx11::basic_string", %"class.std::vector.41", i32, [4 x i8] }>
%"struct.YAML::Mark" = type { i32, i32, i32 }
%"class.std::vector.41" = type { %"struct.std::_Vector_base.42" }
%"struct.std::_Vector_base.42" = type { %"struct.std::_Vector_base<std::__cxx11::basic_string<char>, std::allocator<std::__cxx11::basic_string<char>>>::_Vector_impl" }
%"struct.std::_Vector_base<std::__cxx11::basic_string<char>, std::allocator<std::__cxx11::basic_string<char>>>::_Vector_impl" = type { %"struct.std::_Vector_base<std::__cxx11::basic_string<char>, std::allocator<std::__cxx11::basic_string<char>>>::_Vector_impl_data" }
%"struct.std::_Vector_base<std::__cxx11::basic_string<char>, std::allocator<std::__cxx11::basic_string<char>>>::_Vector_impl_data" = type { ptr, ptr, ptr }

; Function Attrs: mustprogress uwtable
define void @_ZN4YAML15SingleDocParser14HandleDocumentERNS_12EventHandlerE(ptr noundef nonnull align 8 dereferenceable(88) %this, ptr noundef nonnull align 8 dereferenceable(8) %eventHandler) #4 align 2 {
entry:
  %this.addr = alloca ptr, align 8
  %eventHandler.addr = alloca ptr, align 8
  store ptr %this, ptr %this.addr, align 8
  store ptr %eventHandler, ptr %eventHandler.addr, align 8
  %this1 = load ptr, ptr %this.addr, align 8
  %0 = load ptr, ptr %eventHandler.addr, align 8
  %m_scanner = getelementptr inbounds %"class.YAML::SingleDocParser", ptr %this1, i32 0, i32 1
  %1 = load ptr, ptr %m_scanner, align 8
  %call = call noundef nonnull align 8 dereferenceable(84) ptr @_ZN4YAML7Scanner4peekEv(ptr noundef nonnull align 8 dereferenceable(480) %1)
  %mark = getelementptr inbounds %"struct.YAML::Token", ptr %call, i32 0, i32 2
  %vtable = load ptr, ptr %0, align 8
  %vfn = getelementptr inbounds ptr, ptr %vtable, i64 2
  %2 = load ptr, ptr %vfn, align 8
  call void %2(ptr noundef nonnull align 8 dereferenceable(8) %0, ptr noundef nonnull align 4 dereferenceable(12) %mark)
  %m_scanner2 = getelementptr inbounds %"class.YAML::SingleDocParser", ptr %this1, i32 0, i32 1
  %3 = load ptr, ptr %m_scanner2, align 8
  %call3 = call noundef nonnull align 8 dereferenceable(84) ptr @_ZN4YAML7Scanner4peekEv(ptr noundef nonnull align 8 dereferenceable(480) %3)
  %type = getelementptr inbounds %"struct.YAML::Token", ptr %call3, i32 0, i32 1
  %4 = load i32, ptr %type, align 4
  %cmp = icmp eq i32 %4, 1
  br i1 %cmp, label %if.then, label %if.end

if.then:                                          ; preds = %entry
  %m_scanner4 = getelementptr inbounds %"class.YAML::SingleDocParser", ptr %this1, i32 0, i32 1
  %5 = load ptr, ptr %m_scanner4, align 8
  call void @_ZN4YAML7Scanner3popEv(ptr noundef nonnull align 8 dereferenceable(480) %5)
  br label %if.end

if.end:                                           ; preds = %if.then, %entry
  %6 = load ptr, ptr %eventHandler.addr, align 8
  call void @_ZN4YAML15SingleDocParser10HandleNodeERNS_12EventHandlerE(ptr noundef nonnull align 8 dereferenceable(88) %this1, ptr noundef nonnull align 8 dereferenceable(8) %6)
  %7 = load ptr, ptr %eventHandler.addr, align 8
  %vtable5 = load ptr, ptr %7, align 8
  %vfn6 = getelementptr inbounds ptr, ptr %vtable5, i64 3
  %8 = load ptr, ptr %vfn6, align 8
  call void %8(ptr noundef nonnull align 8 dereferenceable(8) %7)
  br label %while.cond

while.cond:                                       ; preds = %while.body, %if.end
  %m_scanner7 = getelementptr inbounds %"class.YAML::SingleDocParser", ptr %this1, i32 0, i32 1
  %9 = load ptr, ptr %m_scanner7, align 8
  %call8 = call noundef zeroext i1 @_ZN4YAML7Scanner5emptyEv(ptr noundef nonnull align 8 dereferenceable(480) %9)
  br i1 %call8, label %land.end, label %land.rhs

land.rhs:                                         ; preds = %while.cond
  %m_scanner9 = getelementptr inbounds %"class.YAML::SingleDocParser", ptr %this1, i32 0, i32 1
  %10 = load ptr, ptr %m_scanner9, align 8
  %call10 = call noundef nonnull align 8 dereferenceable(84) ptr @_ZN4YAML7Scanner4peekEv(ptr noundef nonnull align 8 dereferenceable(480) %10)
  %type11 = getelementptr inbounds %"struct.YAML::Token", ptr %call10, i32 0, i32 1
  %11 = load i32, ptr %type11, align 4
  %cmp12 = icmp eq i32 %11, 2
  br label %land.end

land.end:                                         ; preds = %land.rhs, %while.cond
  %12 = phi i1 [ false, %while.cond ], [ %cmp12, %land.rhs ]
  br i1 %12, label %while.body, label %while.end

while.body:                                       ; preds = %land.end
  %m_scanner13 = getelementptr inbounds %"class.YAML::SingleDocParser", ptr %this1, i32 0, i32 1
  %13 = load ptr, ptr %m_scanner13, align 8
  call void @_ZN4YAML7Scanner3popEv(ptr noundef nonnull align 8 dereferenceable(480) %13)
  br label %while.cond, !llvm.loop !4

while.end:                                        ; preds = %land.end
  ret void
}