; Function Attrs: mustprogress uwtable
define void @_ZN4YAML15SingleDocParser14HandleDocumentERNS_12EventHandlerE(ptr noundef nonnull align 8 dereferenceable(88) %this, ptr noundef nonnull align 8 dereferenceable(8) %eventHandler) local_unnamed_addr #4 align 2 {
entry:
  %m_scanner = getelementptr inbounds i8, ptr %this, i64 8
  %0 = load ptr, ptr %m_scanner, align 8
  %call = tail call noundef nonnull align 8 dereferenceable(84) ptr @_ZN4YAML7Scanner4peekEv(ptr noundef nonnull align 8 dereferenceable(480) %0)
  %mark = getelementptr inbounds i8, ptr %call, i64 8
  %vtable = load ptr, ptr %eventHandler, align 8
  %vfn = getelementptr inbounds i8, ptr %vtable, i64 16
  %1 = load ptr, ptr %vfn, align 8
  tail call void %1(ptr noundef nonnull align 8 dereferenceable(8) %eventHandler, ptr noundef nonnull align 4 dereferenceable(12) %mark)
  %2 = load ptr, ptr %m_scanner, align 8
  %call3 = tail call noundef nonnull align 8 dereferenceable(84) ptr @_ZN4YAML7Scanner4peekEv(ptr noundef nonnull align 8 dereferenceable(480) %2)
  %type = getelementptr inbounds i8, ptr %call3, i64 4
  %3 = load i32, ptr %type, align 4
  %cmp = icmp eq i32 %3, 1
  br i1 %cmp, label %if.then, label %if.end

if.then:                                          ; preds = %entry
  %4 = load ptr, ptr %m_scanner, align 8
  tail call void @_ZN4YAML7Scanner3popEv(ptr noundef nonnull align 8 dereferenceable(480) %4)
  br label %if.end

if.end:                                           ; preds = %if.then, %entry
  tail call void @_ZN4YAML15SingleDocParser10HandleNodeERNS_12EventHandlerE(ptr noundef nonnull align 8 dereferenceable(88) %this, ptr noundef nonnull align 8 dereferenceable(8) %eventHandler)
  %vtable5 = load ptr, ptr %eventHandler, align 8
  %vfn6 = getelementptr inbounds i8, ptr %vtable5, i64 24
  %5 = load ptr, ptr %vfn6, align 8
  tail call void %5(ptr noundef nonnull align 8 dereferenceable(8) %eventHandler)
  %6 = load ptr, ptr %m_scanner, align 8
  %call83 = tail call noundef zeroext i1 @_ZN4YAML7Scanner5emptyEv(ptr noundef nonnull align 8 dereferenceable(480) %6)
  br i1 %call83, label %while.end, label %land.rhs

land.rhs:                                         ; preds = %if.end, %while.body
  %7 = load ptr, ptr %m_scanner, align 8
  %call10 = tail call noundef nonnull align 8 dereferenceable(84) ptr @_ZN4YAML7Scanner4peekEv(ptr noundef nonnull align 8 dereferenceable(480) %7)
  %type11 = getelementptr inbounds i8, ptr %call10, i64 4
  %8 = load i32, ptr %type11, align 4
  %cmp12 = icmp eq i32 %8, 2
  br i1 %cmp12, label %while.body, label %while.end

while.body:                                       ; preds = %land.rhs
  %9 = load ptr, ptr %m_scanner, align 8
  tail call void @_ZN4YAML7Scanner3popEv(ptr noundef nonnull align 8 dereferenceable(480) %9)
  %10 = load ptr, ptr %m_scanner, align 8
  %call8 = tail call noundef zeroext i1 @_ZN4YAML7Scanner5emptyEv(ptr noundef nonnull align 8 dereferenceable(480) %10)
  br i1 %call8, label %while.end, label %land.rhs, !llvm.loop !6

while.end:                                        ; preds = %land.rhs, %while.body, %if.end
  ret void
}